target datalayout = "e-m:e-p270:32:32-p271:32:32-p272:64:64-i64:64-i128:128-f80:128-n8:16:32:64-S128"
target triple = "x86_64-pc-linux-gnu"

%struct.Msat_Solver_t_ = type { i32, i32, ptr, ptr, double, double, ptr, ptr, double, double, ptr, ptr, ptr, i32, i32, ptr, ptr, ptr, ptr, ptr, ptr, i32, double, i32, double, ptr, ptr, ptr, ptr, i32, ptr, ptr, ptr, ptr, %struct.Msat_SolverStats_t_, i32, i32, i32, i32, i32, i32 }
%struct.Msat_SolverStats_t_ = type { i64, i64, i64, i64, i64, i64 }

@.str.6 = private unnamed_addr constant [20 x i8] c"Original clauses: \0A\00", align 1
@.str.7 = private unnamed_addr constant [6 x i8] c"%3d: \00", align 1
@.str.8 = private unnamed_addr constant [19 x i8] c"Learned clauses: \0A\00", align 1
@.str.9 = private unnamed_addr constant [21 x i8] c"Variable activity: \0A\00", align 1
@.str.10 = private unnamed_addr constant [12 x i8] c"%3d : %.4f\0A\00", align 1

; Function Attrs: nounwind uwtable
define void @Msat_SolverPrintClauses(ptr noundef %0) #0 {
  %2 = alloca ptr, align 8
  %3 = alloca ptr, align 8
  %4 = alloca i32, align 4
  %5 = alloca i32, align 4
  store ptr %0, ptr %2, align 8, !tbaa !3
  call void @llvm.lifetime.start.p0(i64 8, ptr %3) #5
  call void @llvm.lifetime.start.p0(i64 4, ptr %4) #5
  call void @llvm.lifetime.start.p0(i64 4, ptr %5) #5
  %6 = call i32 (ptr, ...) @printf(ptr noundef @.str.6)
  %7 = load ptr, ptr %2, align 8, !tbaa !3
  %8 = getelementptr inbounds nuw %struct.Msat_Solver_t_, ptr %7, i32 0, i32 2
  %9 = load ptr, ptr %8, align 8, !tbaa !29
  %10 = call i32 @Msat_ClauseVecReadSize(ptr noundef %9)
  store i32 %10, ptr %4, align 4, !tbaa !8
  %11 = load ptr, ptr %2, align 8, !tbaa !3
  %12 = getelementptr inbounds nuw %struct.Msat_Solver_t_, ptr %11, i32 0, i32 2
  %13 = load ptr, ptr %12, align 8, !tbaa !29
  %14 = call ptr @Msat_ClauseVecReadArray(ptr noundef %13)
  store ptr %14, ptr %3, align 8, !tbaa !30
  store i32 0, ptr %5, align 4, !tbaa !8
  br label %15

15:                                               ; preds = %27, %1
  %16 = load i32, ptr %5, align 4, !tbaa !8
  %17 = load i32, ptr %4, align 4, !tbaa !8
  %18 = icmp slt i32 %16, %17
  br i1 %18, label %19, label %30

19:                                               ; preds = %15
  %20 = load i32, ptr %5, align 4, !tbaa !8
  %21 = call i32 (ptr, ...) @printf(ptr noundef @.str.7, i32 noundef %20)
  %22 = load ptr, ptr %3, align 8, !tbaa !30
  %23 = load i32, ptr %5, align 4, !tbaa !8
  %24 = sext i32 %23 to i64
  %25 = getelementptr inbounds ptr, ptr %22, i64 %24
  %26 = load ptr, ptr %25, align 8, !tbaa !31
  call void @Msat_ClausePrint(ptr noundef %26)
  br label %27

27:                                               ; preds = %19
  %28 = load i32, ptr %5, align 4, !tbaa !8
  %29 = add nsw i32 %28, 1
  store i32 %29, ptr %5, align 4, !tbaa !8
  br label %15, !llvm.loop !33

30:                                               ; preds = %15
  %31 = call i32 (ptr, ...) @printf(ptr noundef @.str.8)
  %32 = load ptr, ptr %2, align 8, !tbaa !3
  %33 = getelementptr inbounds nuw %struct.Msat_Solver_t_, ptr %32, i32 0, i32 3
  %34 = load ptr, ptr %33, align 8, !tbaa !34
  %35 = call i32 @Msat_ClauseVecReadSize(ptr noundef %34)
  store i32 %35, ptr %4, align 4, !tbaa !8
  %36 = load ptr, ptr %2, align 8, !tbaa !3
  %37 = getelementptr inbounds nuw %struct.Msat_Solver_t_, ptr %36, i32 0, i32 3
  %38 = load ptr, ptr %37, align 8, !tbaa !34
  %39 = call ptr @Msat_ClauseVecReadArray(ptr noundef %38)
  store ptr %39, ptr %3, align 8, !tbaa !30
  store i32 0, ptr %5, align 4, !tbaa !8
  br label %40

40:                                               ; preds = %52, %30
  %41 = load i32, ptr %5, align 4, !tbaa !8
  %42 = load i32, ptr %4, align 4, !tbaa !8
  %43 = icmp slt i32 %41, %42
  br i1 %43, label %44, label %55

44:                                               ; preds = %40
  %45 = load i32, ptr %5, align 4, !tbaa !8
  %46 = call i32 (ptr, ...) @printf(ptr noundef @.str.7, i32 noundef %45)
  %47 = load ptr, ptr %3, align 8, !tbaa !30
  %48 = load i32, ptr %5, align 4, !tbaa !8
  %49 = sext i32 %48 to i64
  %50 = getelementptr inbounds ptr, ptr %47, i64 %49
  %51 = load ptr, ptr %50, align 8, !tbaa !31
  call void @Msat_ClausePrint(ptr noundef %51)
  br label %52

52:                                               ; preds = %44
  %53 = load i32, ptr %5, align 4, !tbaa !8
  %54 = add nsw i32 %53, 1
  store i32 %54, ptr %5, align 4, !tbaa !8
  br label %40, !llvm.loop !35

55:                                               ; preds = %40
  %56 = call i32 (ptr, ...) @printf(ptr noundef @.str.9)
  store i32 0, ptr %5, align 4, !tbaa !8
  br label %57

57:                                               ; preds = %73, %55
  %58 = load i32, ptr %5, align 4, !tbaa !8
  %59 = load ptr, ptr %2, align 8, !tbaa !3
  %60 = getelementptr inbounds nuw %struct.Msat_Solver_t_, ptr %59, i32 0, i32 13
  %61 = load i32, ptr %60, align 8, !tbaa !10
  %62 = icmp slt i32 %58, %61
  br i1 %62, label %63, label %76

63:                                               ; preds = %57
  %64 = load i32, ptr %5, align 4, !tbaa !8
  %65 = load ptr, ptr %2, align 8, !tbaa !3
  %66 = getelementptr inbounds nuw %struct.Msat_Solver_t_, ptr %65, i32 0, i32 6
  %67 = load ptr, ptr %66, align 8, !tbaa !36
  %68 = load i32, ptr %5, align 4, !tbaa !8
  %69 = sext i32 %68 to i64
  %70 = getelementptr inbounds double, ptr %67, i64 %69
  %71 = load double, ptr %70, align 8, !tbaa !37
  %72 = call i32 (ptr, ...) @printf(ptr noundef @.str.10, i32 noundef %64, double noundef %71)
  br label %73

73:                                               ; preds = %63
  %74 = load i32, ptr %5, align 4, !tbaa !8
  %75 = add nsw i32 %74, 1
  store i32 %75, ptr %5, align 4, !tbaa !8
  br label %57, !llvm.loop !38

76:                                               ; preds = %57
  call void @llvm.lifetime.end.p0(i64 4, ptr %5) #5
  call void @llvm.lifetime.end.p0(i64 4, ptr %4) #5
  call void @llvm.lifetime.end.p0(i64 8, ptr %3) #5
  ret void
}