; Function Attrs: nounwind uwtable
define void @Msat_SolverPrintClauses(ptr noundef readonly captures(none) %0) local_unnamed_addr #3 {
  %puts = tail call i32 @puts(ptr nonnull dereferenceable(1) @str.1)
  %2 = getelementptr inbounds nuw i8, ptr %0, i64 8
  %3 = load ptr, ptr %2, align 8, !tbaa !27
  %4 = tail call i32 @Msat_ClauseVecReadSize(ptr noundef %3) #9
  %5 = load ptr, ptr %2, align 8, !tbaa !27
  %6 = tail call ptr @Msat_ClauseVecReadArray(ptr noundef %5) #9
  %7 = icmp sgt i32 %4, 0
  br i1 %7, label %.lr.ph.preheader, label %._crit_edge

.lr.ph.preheader:                                 ; preds = %1
  %wide.trip.count = zext nneg i32 %4 to i64
  br label %.lr.ph

.lr.ph:                                           ; preds = %.lr.ph.preheader, %.lr.ph
  %indvars.iv = phi i64 [ 0, %.lr.ph.preheader ], [ %indvars.iv.next, %.lr.ph ]
  %8 = trunc nuw nsw i64 %indvars.iv to i32
  %9 = tail call i32 (ptr, ...) @printf(ptr noundef nonnull dereferenceable(1) @.str.7, i32 noundef %8)
  %10 = getelementptr inbounds nuw ptr, ptr %6, i64 %indvars.iv
  %11 = load ptr, ptr %10, align 8, !tbaa !28
  tail call void @Msat_ClausePrint(ptr noundef %11) #9
  %indvars.iv.next = add nuw nsw i64 %indvars.iv, 1
  %exitcond.not = icmp eq i64 %indvars.iv.next, %wide.trip.count
  br i1 %exitcond.not, label %._crit_edge, label %.lr.ph, !llvm.loop !30

._crit_edge:                                      ; preds = %.lr.ph, %1
  %puts21 = tail call i32 @puts(ptr nonnull dereferenceable(1) @str.2)
  %12 = getelementptr inbounds nuw i8, ptr %0, i64 16
  %13 = load ptr, ptr %12, align 8, !tbaa !31
  %14 = tail call i32 @Msat_ClauseVecReadSize(ptr noundef %13) #9
  %15 = load ptr, ptr %12, align 8, !tbaa !31
  %16 = tail call ptr @Msat_ClauseVecReadArray(ptr noundef %15) #9
  %17 = icmp sgt i32 %14, 0
  br i1 %17, label %.lr.ph26.preheader, label %._crit_edge27

.lr.ph26.preheader:                               ; preds = %._crit_edge
  %wide.trip.count36 = zext nneg i32 %14 to i64
  br label %.lr.ph26

.lr.ph26:                                         ; preds = %.lr.ph26.preheader, %.lr.ph26
  %indvars.iv33 = phi i64 [ 0, %.lr.ph26.preheader ], [ %indvars.iv.next34, %.lr.ph26 ]
  %18 = trunc nuw nsw i64 %indvars.iv33 to i32
  %19 = tail call i32 (ptr, ...) @printf(ptr noundef nonnull dereferenceable(1) @.str.7, i32 noundef %18)
  %20 = getelementptr inbounds nuw ptr, ptr %16, i64 %indvars.iv33
  %21 = load ptr, ptr %20, align 8, !tbaa !28
  tail call void @Msat_ClausePrint(ptr noundef %21) #9
  %indvars.iv.next34 = add nuw nsw i64 %indvars.iv33, 1
  %exitcond37.not = icmp eq i64 %indvars.iv.next34, %wide.trip.count36
  br i1 %exitcond37.not, label %._crit_edge27, label %.lr.ph26, !llvm.loop !32

._crit_edge27:                                    ; preds = %.lr.ph26, %._crit_edge
  %puts22 = tail call i32 @puts(ptr nonnull dereferenceable(1) @str.3)
  %22 = getelementptr inbounds nuw i8, ptr %0, i64 96
  %23 = load i32, ptr %22, align 8, !tbaa !3
  %24 = icmp sgt i32 %23, 0
  br i1 %24, label %.lr.ph30, label %._crit_edge31

.lr.ph30:                                         ; preds = %._crit_edge27
  %25 = getelementptr inbounds nuw i8, ptr %0, i64 40
  br label %26

26:                                               ; preds = %.lr.ph30, %26
  %indvars.iv38 = phi i64 [ 0, %.lr.ph30 ], [ %indvars.iv.next39, %26 ]
  %27 = load ptr, ptr %25, align 8, !tbaa !33
  %28 = getelementptr inbounds nuw double, ptr %27, i64 %indvars.iv38
  %29 = load double, ptr %28, align 8, !tbaa !34
  %30 = trunc nuw nsw i64 %indvars.iv38 to i32
  %31 = tail call i32 (ptr, ...) @printf(ptr noundef nonnull dereferenceable(1) @.str.10, i32 noundef %30, double noundef %29)
  %indvars.iv.next39 = add nuw nsw i64 %indvars.iv38, 1
  %32 = load i32, ptr %22, align 8, !tbaa !3
  %33 = sext i32 %32 to i64
  %34 = icmp slt i64 %indvars.iv.next39, %33
  br i1 %34, label %26, label %._crit_edge31, !llvm.loop !35

._crit_edge31:                                    ; preds = %26, %._crit_edge27
  ret void
}